target datalayout = "e-m:e-p270:32:32-p271:32:32-p272:64:64-i64:64-i128:128-f80:128-n8:16:32:64-S128"
target triple = "x86_64-pc-linux-gnu"

%"struct.cv::ximgproc::Box" = type { i32, i32, i32, i32, float }

; Function Attrs: inlinehint mustprogress nounwind uwtable
define linkonce_odr noundef nonnull align 4 dereferenceable(4) ptr @_ZSt3minIiERKT_S2_S2_(ptr noundef nonnull align 4 dereferenceable(4) %0, ptr noundef nonnull align 4 dereferenceable(4) %1) #7 comdat {
  %3 = alloca ptr, align 8
  %4 = alloca ptr, align 8
  %5 = alloca ptr, align 8
  store ptr %0, ptr %4, align 8, !tbaa !87
  store ptr %1, ptr %5, align 8, !tbaa !87
  %6 = load ptr, ptr %5, align 8, !tbaa !87
  %7 = load i32, ptr %6, align 4, !tbaa !10
  %8 = load ptr, ptr %4, align 8, !tbaa !87
  %9 = load i32, ptr %8, align 4, !tbaa !10
  %10 = icmp slt i32 %7, %9
  br i1 %10, label %11, label %13

11:                                               ; preds = %2
  %12 = load ptr, ptr %5, align 8, !tbaa !87
  store ptr %12, ptr %3, align 8
  br label %15

13:                                               ; preds = %2
  %14 = load ptr, ptr %4, align 8, !tbaa !87
  store ptr %14, ptr %3, align 8
  br label %15

15:                                               ; preds = %13, %11
  %16 = load ptr, ptr %3, align 8
  ret ptr %16
}

; Function Attrs: inlinehint mustprogress nounwind uwtable
define linkonce_odr noundef nonnull align 4 dereferenceable(4) ptr @_ZSt3maxIiERKT_S2_S2_(ptr noundef nonnull align 4 dereferenceable(4) %0, ptr noundef nonnull align 4 dereferenceable(4) %1) #7 comdat {
  %3 = alloca ptr, align 8
  %4 = alloca ptr, align 8
  %5 = alloca ptr, align 8
  store ptr %0, ptr %4, align 8, !tbaa !87
  store ptr %1, ptr %5, align 8, !tbaa !87
  %6 = load ptr, ptr %4, align 8, !tbaa !87
  %7 = load i32, ptr %6, align 4, !tbaa !10
  %8 = load ptr, ptr %5, align 8, !tbaa !87
  %9 = load i32, ptr %8, align 4, !tbaa !10
  %10 = icmp slt i32 %7, %9
  br i1 %10, label %11, label %13

11:                                               ; preds = %2
  %12 = load ptr, ptr %5, align 8, !tbaa !87
  store ptr %12, ptr %3, align 8
  br label %15

13:                                               ; preds = %2
  %14 = load ptr, ptr %4, align 8, !tbaa !87
  store ptr %14, ptr %3, align 8
  br label %15

15:                                               ; preds = %13, %11
  %16 = load ptr, ptr %3, align 8
  ret ptr %16
}

; Function Attrs: mustprogress uwtable
define hidden noundef float @_ZN2cv8ximgproc13EdgeBoxesImpl12boxesOverlapERNS0_3BoxES3_(ptr noundef nonnull align 8 dereferenceable(1124) %0, ptr noundef nonnull align 4 dereferenceable(20) %1, ptr noundef nonnull align 4 dereferenceable(20) %2) #4 align 2 {
  %4 = alloca float, align 4
  %5 = alloca ptr, align 8
  %6 = alloca ptr, align 8
  %7 = alloca ptr, align 8
  %8 = alloca float, align 4
  %9 = alloca float, align 4
  %10 = alloca float, align 4
  %11 = alloca i32, align 4
  %12 = alloca i32, align 4
  %13 = alloca i32, align 4
  %14 = alloca i32, align 4
  %15 = alloca i32, align 4
  %16 = alloca i32, align 4
  %17 = alloca i32, align 4
  %18 = alloca i32, align 4
  %19 = alloca i32, align 4
  %20 = alloca i32, align 4
  %21 = alloca i32, align 4
  %22 = alloca i32, align 4
  %23 = alloca i32, align 4
  store ptr %0, ptr %5, align 8, !tbaa !3
  store ptr %1, ptr %6, align 8, !tbaa !165
  store ptr %2, ptr %7, align 8, !tbaa !165
  call void @llvm.lifetime.start.p0(i64 4, ptr %8) #3
  call void @llvm.lifetime.start.p0(i64 4, ptr %9) #3
  call void @llvm.lifetime.start.p0(i64 4, ptr %10) #3
  call void @llvm.lifetime.start.p0(i64 4, ptr %11) #3
  call void @llvm.lifetime.start.p0(i64 4, ptr %12) #3
  call void @llvm.lifetime.start.p0(i64 4, ptr %13) #3
  call void @llvm.lifetime.start.p0(i64 4, ptr %14) #3
  call void @llvm.lifetime.start.p0(i64 4, ptr %15) #3
  call void @llvm.lifetime.start.p0(i64 4, ptr %16) #3
  call void @llvm.lifetime.start.p0(i64 4, ptr %17) #3
  call void @llvm.lifetime.start.p0(i64 4, ptr %18) #3
  %24 = load ptr, ptr %6, align 8, !tbaa !165
  %25 = getelementptr inbounds nuw %"struct.cv::ximgproc::Box", ptr %24, i32 0, i32 1
  %26 = load i32, ptr %25, align 4, !tbaa !170
  %27 = load ptr, ptr %6, align 8, !tbaa !165
  %28 = getelementptr inbounds nuw %"struct.cv::ximgproc::Box", ptr %27, i32 0, i32 3
  %29 = load i32, ptr %28, align 4, !tbaa !172
  %30 = add nsw i32 %26, %29
  store i32 %30, ptr %15, align 4, !tbaa !10
  %31 = load ptr, ptr %6, align 8, !tbaa !165
  %32 = getelementptr inbounds nuw %"struct.cv::ximgproc::Box", ptr %31, i32 0, i32 0
  %33 = load i32, ptr %32, align 4, !tbaa !173
  %34 = load ptr, ptr %6, align 8, !tbaa !165
  %35 = getelementptr inbounds nuw %"struct.cv::ximgproc::Box", ptr %34, i32 0, i32 2
  %36 = load i32, ptr %35, align 4, !tbaa !174
  %37 = add nsw i32 %33, %36
  store i32 %37, ptr %16, align 4, !tbaa !10
  %38 = load ptr, ptr %6, align 8, !tbaa !165
  %39 = getelementptr inbounds nuw %"struct.cv::ximgproc::Box", ptr %38, i32 0, i32 1
  %40 = load i32, ptr %39, align 4, !tbaa !170
  %41 = load i32, ptr %15, align 4, !tbaa !10
  %42 = icmp sge i32 %40, %41
  br i1 %42, label %49, label %43

43:                                               ; preds = %3
  %44 = load ptr, ptr %6, align 8, !tbaa !165
  %45 = getelementptr inbounds nuw %"struct.cv::ximgproc::Box", ptr %44, i32 0, i32 0
  %46 = load i32, ptr %45, align 4, !tbaa !173
  %47 = load i32, ptr %16, align 4, !tbaa !10
  %48 = icmp sge i32 %46, %47
  br i1 %48, label %49, label %50

49:                                               ; preds = %43, %3
  store float 0.000000e+00, ptr %4, align 4
  store i32 1, ptr %19, align 4
  br label %132

50:                                               ; preds = %43
  %51 = load ptr, ptr %7, align 8, !tbaa !165
  %52 = getelementptr inbounds nuw %"struct.cv::ximgproc::Box", ptr %51, i32 0, i32 1
  %53 = load i32, ptr %52, align 4, !tbaa !170
  %54 = load ptr, ptr %7, align 8, !tbaa !165
  %55 = getelementptr inbounds nuw %"struct.cv::ximgproc::Box", ptr %54, i32 0, i32 3
  %56 = load i32, ptr %55, align 4, !tbaa !172
  %57 = add nsw i32 %53, %56
  store i32 %57, ptr %17, align 4, !tbaa !10
  %58 = load ptr, ptr %7, align 8, !tbaa !165
  %59 = getelementptr inbounds nuw %"struct.cv::ximgproc::Box", ptr %58, i32 0, i32 0
  %60 = load i32, ptr %59, align 4, !tbaa !173
  %61 = load ptr, ptr %7, align 8, !tbaa !165
  %62 = getelementptr inbounds nuw %"struct.cv::ximgproc::Box", ptr %61, i32 0, i32 2
  %63 = load i32, ptr %62, align 4, !tbaa !174
  %64 = add nsw i32 %60, %63
  store i32 %64, ptr %18, align 4, !tbaa !10
  %65 = load ptr, ptr %6, align 8, !tbaa !165
  %66 = getelementptr inbounds nuw %"struct.cv::ximgproc::Box", ptr %65, i32 0, i32 1
  %67 = load i32, ptr %66, align 4, !tbaa !170
  %68 = load i32, ptr %17, align 4, !tbaa !10
  %69 = icmp sge i32 %67, %68
  br i1 %69, label %76, label %70

70:                                               ; preds = %50
  %71 = load ptr, ptr %6, align 8, !tbaa !165
  %72 = getelementptr inbounds nuw %"struct.cv::ximgproc::Box", ptr %71, i32 0, i32 0
  %73 = load i32, ptr %72, align 4, !tbaa !173
  %74 = load i32, ptr %18, align 4, !tbaa !10
  %75 = icmp sge i32 %73, %74
  br i1 %75, label %76, label %77

76:                                               ; preds = %70, %50
  store float 0.000000e+00, ptr %4, align 4
  store i32 1, ptr %19, align 4
  br label %132

77:                                               ; preds = %70
  %78 = load ptr, ptr %6, align 8, !tbaa !165
  %79 = getelementptr inbounds nuw %"struct.cv::ximgproc::Box", ptr %78, i32 0, i32 2
  %80 = load i32, ptr %79, align 4, !tbaa !174
  %81 = sitofp i32 %80 to float
  %82 = load ptr, ptr %6, align 8, !tbaa !165
  %83 = getelementptr inbounds nuw %"struct.cv::ximgproc::Box", ptr %82, i32 0, i32 3
  %84 = load i32, ptr %83, align 4, !tbaa !172
  %85 = sitofp i32 %84 to float
  %86 = fmul float %81, %85
  store float %86, ptr %8, align 4, !tbaa !8
  %87 = load ptr, ptr %6, align 8, !tbaa !165
  %88 = getelementptr inbounds nuw %"struct.cv::ximgproc::Box", ptr %87, i32 0, i32 1
  %89 = load ptr, ptr %7, align 8, !tbaa !165
  %90 = getelementptr inbounds nuw %"struct.cv::ximgproc::Box", ptr %89, i32 0, i32 1
  %91 = call noundef nonnull align 4 dereferenceable(4) ptr @_ZSt3maxIiERKT_S2_S2_(ptr noundef nonnull align 4 dereferenceable(4) %88, ptr noundef nonnull align 4 dereferenceable(4) %90)
  %92 = load i32, ptr %91, align 4, !tbaa !10
  store i32 %92, ptr %11, align 4, !tbaa !10
  %93 = call noundef nonnull align 4 dereferenceable(4) ptr @_ZSt3minIiERKT_S2_S2_(ptr noundef nonnull align 4 dereferenceable(4) %15, ptr noundef nonnull align 4 dereferenceable(4) %17)
  %94 = load i32, ptr %93, align 4, !tbaa !10
  store i32 %94, ptr %12, align 4, !tbaa !10
  %95 = load ptr, ptr %7, align 8, !tbaa !165
  %96 = getelementptr inbounds nuw %"struct.cv::ximgproc::Box", ptr %95, i32 0, i32 2
  %97 = load i32, ptr %96, align 4, !tbaa !174
  %98 = sitofp i32 %97 to float
  %99 = load ptr, ptr %7, align 8, !tbaa !165
  %100 = getelementptr inbounds nuw %"struct.cv::ximgproc::Box", ptr %99, i32 0, i32 3
  %101 = load i32, ptr %100, align 4, !tbaa !172
  %102 = sitofp i32 %101 to float
  %103 = fmul float %98, %102
  store float %103, ptr %9, align 4, !tbaa !8
  %104 = load ptr, ptr %6, align 8, !tbaa !165
  %105 = getelementptr inbounds nuw %"struct.cv::ximgproc::Box", ptr %104, i32 0, i32 0
  %106 = load ptr, ptr %7, align 8, !tbaa !165
  %107 = getelementptr inbounds nuw %"struct.cv::ximgproc::Box", ptr %106, i32 0, i32 0
  %108 = call noundef nonnull align 4 dereferenceable(4) ptr @_ZSt3maxIiERKT_S2_S2_(ptr noundef nonnull align 4 dereferenceable(4) %105, ptr noundef nonnull align 4 dereferenceable(4) %107)
  %109 = load i32, ptr %108, align 4, !tbaa !10
  store i32 %109, ptr %13, align 4, !tbaa !10
  %110 = call noundef nonnull align 4 dereferenceable(4) ptr @_ZSt3minIiERKT_S2_S2_(ptr noundef nonnull align 4 dereferenceable(4) %16, ptr noundef nonnull align 4 dereferenceable(4) %18)
  %111 = load i32, ptr %110, align 4, !tbaa !10
  store i32 %111, ptr %14, align 4, !tbaa !10
  call void @llvm.lifetime.start.p0(i64 4, ptr %20) #3
  store i32 0, ptr %20, align 4, !tbaa !10
  call void @llvm.lifetime.start.p0(i64 4, ptr %21) #3
  %112 = load i32, ptr %12, align 4, !tbaa !10
  %113 = load i32, ptr %11, align 4, !tbaa !10
  %114 = sub nsw i32 %112, %113
  store i32 %114, ptr %21, align 4, !tbaa !10
  %115 = call noundef nonnull align 4 dereferenceable(4) ptr @_ZSt3maxIiERKT_S2_S2_(ptr noundef nonnull align 4 dereferenceable(4) %20, ptr noundef nonnull align 4 dereferenceable(4) %21)
  %116 = load i32, ptr %115, align 4, !tbaa !10
  %117 = sitofp i32 %116 to float
  call void @llvm.lifetime.start.p0(i64 4, ptr %22) #3
  store i32 0, ptr %22, align 4, !tbaa !10
  call void @llvm.lifetime.start.p0(i64 4, ptr %23) #3
  %118 = load i32, ptr %14, align 4, !tbaa !10
  %119 = load i32, ptr %13, align 4, !tbaa !10
  %120 = sub nsw i32 %118, %119
  store i32 %120, ptr %23, align 4, !tbaa !10
  %121 = call noundef nonnull align 4 dereferenceable(4) ptr @_ZSt3maxIiERKT_S2_S2_(ptr noundef nonnull align 4 dereferenceable(4) %22, ptr noundef nonnull align 4 dereferenceable(4) %23)
  %122 = load i32, ptr %121, align 4, !tbaa !10
  %123 = sitofp i32 %122 to float
  %124 = fmul float %117, %123
  store float %124, ptr %10, align 4, !tbaa !8
  call void @llvm.lifetime.end.p0(i64 4, ptr %23) #3
  call void @llvm.lifetime.end.p0(i64 4, ptr %22) #3
  call void @llvm.lifetime.end.p0(i64 4, ptr %21) #3
  call void @llvm.lifetime.end.p0(i64 4, ptr %20) #3
  %125 = load float, ptr %10, align 4, !tbaa !8
  %126 = load float, ptr %8, align 4, !tbaa !8
  %127 = load float, ptr %9, align 4, !tbaa !8
  %128 = fadd float %126, %127
  %129 = load float, ptr %10, align 4, !tbaa !8
  %130 = fsub float %128, %129
  %131 = fdiv float %125, %130
  store float %131, ptr %4, align 4
  store i32 1, ptr %19, align 4
  br label %132

132:                                              ; preds = %77, %76, %49
  call void @llvm.lifetime.end.p0(i64 4, ptr %18) #3
  call void @llvm.lifetime.end.p0(i64 4, ptr %17) #3
  call void @llvm.lifetime.end.p0(i64 4, ptr %16) #3
  call void @llvm.lifetime.end.p0(i64 4, ptr %15) #3
  call void @llvm.lifetime.end.p0(i64 4, ptr %14) #3
  call void @llvm.lifetime.end.p0(i64 4, ptr %13) #3
  call void @llvm.lifetime.end.p0(i64 4, ptr %12) #3
  call void @llvm.lifetime.end.p0(i64 4, ptr %11) #3
  call void @llvm.lifetime.end.p0(i64 4, ptr %10) #3
  call void @llvm.lifetime.end.p0(i64 4, ptr %9) #3
  call void @llvm.lifetime.end.p0(i64 4, ptr %8) #3
  %133 = load float, ptr %4, align 4
  ret float %133
}