; Function Attrs: mustprogress nofree norecurse nosync nounwind willreturn memory(argmem: read) uwtable
define hidden noundef float @_ZN2cv8ximgproc13EdgeBoxesImpl12boxesOverlapERNS0_3BoxES3_(ptr noundef nonnull readnone align 8 captures(none) dereferenceable(1124) %0, ptr noundef nonnull readonly align 4 captures(none) dereferenceable(20) %1, ptr noundef nonnull readonly align 4 captures(none) dereferenceable(20) %2) local_unnamed_addr #10 align 2 {
  %4 = getelementptr inbounds nuw i8, ptr %1, i64 4
  %5 = load i32, ptr %4, align 4, !tbaa !150
  %6 = getelementptr inbounds nuw i8, ptr %1, i64 12
  %7 = load i32, ptr %6, align 4, !tbaa !152
  %8 = add nsw i32 %7, %5
  %9 = load i32, ptr %1, align 4, !tbaa !153
  %10 = getelementptr inbounds nuw i8, ptr %1, i64 8
  %11 = load i32, ptr %10, align 4, !tbaa !154
  %12 = add nsw i32 %11, %9
  %.not = icmp sgt i32 %7, 0
  %.not28 = icmp sgt i32 %11, 0
  %or.cond = select i1 %.not, i1 %.not28, i1 false
  br i1 %or.cond, label %13, label %40

13:                                               ; preds = %3
  %14 = getelementptr inbounds nuw i8, ptr %2, i64 4
  %15 = load i32, ptr %14, align 4, !tbaa !150
  %16 = getelementptr inbounds nuw i8, ptr %2, i64 12
  %17 = load i32, ptr %16, align 4, !tbaa !152
  %18 = add nsw i32 %17, %15
  %19 = load i32, ptr %2, align 4, !tbaa !153
  %20 = getelementptr inbounds nuw i8, ptr %2, i64 8
  %21 = load i32, ptr %20, align 4, !tbaa !154
  %22 = add nsw i32 %21, %19
  %.not29 = icmp slt i32 %5, %18
  %.not30 = icmp slt i32 %9, %22
  %or.cond31 = select i1 %.not29, i1 %.not30, i1 false
  br i1 %or.cond31, label %23, label %40

23:                                               ; preds = %13
  %24 = uitofp nneg i32 %11 to float
  %25 = uitofp nneg i32 %7 to float
  %26 = fmul float %25, %24
  %27 = tail call i32 @llvm.smax.i32(i32 %5, i32 %15)
  %.sroa.speculated50 = tail call i32 @llvm.smin.i32(i32 %18, i32 %8)
  %28 = sitofp i32 %21 to float
  %29 = sitofp i32 %17 to float
  %30 = fmul float %29, %28
  %31 = tail call i32 @llvm.smax.i32(i32 %9, i32 %19)
  %.sroa.speculated45 = tail call i32 @llvm.smin.i32(i32 %22, i32 %12)
  %32 = sub nsw i32 %.sroa.speculated50, %27
  %.sroa.speculated40 = tail call i32 @llvm.smax.i32(i32 %32, i32 0)
  %33 = uitofp nneg i32 %.sroa.speculated40 to float
  %34 = sub nsw i32 %.sroa.speculated45, %31
  %.sroa.speculated = tail call i32 @llvm.smax.i32(i32 %34, i32 0)
  %35 = uitofp nneg i32 %.sroa.speculated to float
  %36 = fmul float %33, %35
  %37 = fadd float %26, %30
  %38 = fsub float %37, %36
  %39 = fdiv float %36, %38
  br label %40

40:                                               ; preds = %13, %3, %23
  %.0 = phi float [ %39, %23 ], [ 0.000000e+00, %3 ], [ 0.000000e+00, %13 ]
  ret float %.0
}